target datalayout = "e-m:e-p270:32:32-p271:32:32-p272:64:64-i64:64-i128:128-f80:128-n8:16:32:64-S128"
target triple = "x86_64-pc-linux-gnu"

; Function Attrs: nounwind uwtable
define hidden void @opj_write_float_LE(ptr noundef %0, float noundef %1) #0 {
  %3 = alloca ptr, align 8
  %4 = alloca float, align 4
  %5 = alloca ptr, align 8
  %6 = alloca i32, align 4
  store ptr %0, ptr %3, align 8, !tbaa !3
  store float %1, ptr %4, align 4, !tbaa !22
  call void @llvm.lifetime.start.p0(i64 8, ptr %5) #4
  %7 = getelementptr inbounds nuw i8, ptr %4, i64 4
  %8 = getelementptr inbounds i8, ptr %7, i64 -1
  store ptr %8, ptr %5, align 8, !tbaa !3
  call void @llvm.lifetime.start.p0(i64 4, ptr %6) #4
  store i32 0, ptr %6, align 4, !tbaa !8
  br label %9

9:                                                ; preds = %19, %2
  %10 = load i32, ptr %6, align 4, !tbaa !8
  %11 = zext i32 %10 to i64
  %12 = icmp ult i64 %11, 4
  br i1 %12, label %13, label %22

13:                                               ; preds = %9
  %14 = load ptr, ptr %5, align 8, !tbaa !3
  %15 = getelementptr inbounds i8, ptr %14, i32 -1
  store ptr %15, ptr %5, align 8, !tbaa !3
  %16 = load i8, ptr %14, align 1, !tbaa !10
  %17 = load ptr, ptr %3, align 8, !tbaa !3
  %18 = getelementptr inbounds nuw i8, ptr %17, i32 1
  store ptr %18, ptr %3, align 8, !tbaa !3
  store i8 %16, ptr %17, align 1, !tbaa !10
  br label %19

19:                                               ; preds = %13
  %20 = load i32, ptr %6, align 4, !tbaa !8
  %21 = add i32 %20, 1
  store i32 %21, ptr %6, align 4, !tbaa !8
  br label %9, !llvm.loop !24

22:                                               ; preds = %9
  call void @llvm.lifetime.end.p0(i64 4, ptr %6) #4
  call void @llvm.lifetime.end.p0(i64 8, ptr %5) #4
  ret void
}