; Function Attrs: nofree norecurse nosync nounwind memory(argmem: write) uwtable
define hidden void @opj_write_float_LE(ptr noundef writeonly captures(none) %0, float noundef %1) local_unnamed_addr #2 {
  %3 = alloca float, align 4
  store float %1, ptr %3, align 4, !tbaa !15
  %4 = getelementptr inbounds nuw i8, ptr %3, i64 3
  br label %5

5:                                                ; preds = %2, %5
  %.07 = phi i32 [ 0, %2 ], [ %9, %5 ]
  %.036 = phi ptr [ %4, %2 ], [ %6, %5 ]
  %.045 = phi ptr [ %0, %2 ], [ %8, %5 ]
  %6 = getelementptr inbounds i8, ptr %.036, i64 -1
  %7 = load i8, ptr %.036, align 1, !tbaa !7
  %8 = getelementptr inbounds nuw i8, ptr %.045, i64 1
  store i8 %7, ptr %.045, align 1, !tbaa !7
  %9 = add nuw nsw i32 %.07, 1
  %exitcond.not = icmp eq i32 %9, 4
  br i1 %exitcond.not, label %10, label %5, !llvm.loop !17

10:                                               ; preds = %5
  ret void
}